; Function Attrs: nounwind uwtable
define hidden zeroext i8 @isVThread(ptr noundef %0) local_unnamed_addr #0 {
  %2 = tail call ptr @getEnv()
  %3 = load ptr, ptr @gdata, align 8
  %4 = getelementptr inbounds i8, ptr %3, i64 528
  %5 = load i32, ptr %4, align 8
  %6 = and i32 %5, 2
  %.not = icmp eq i32 %6, 0
  br i1 %.not, label %8, label %7

7:                                                ; preds = %1
  tail call void @log_message_begin(ptr noundef nonnull @.str.8, ptr noundef nonnull @.str.4, i32 noundef 1537) #14
  tail call void (ptr, ...) @log_message_end(ptr noundef nonnull @.str.9, ptr noundef nonnull @.str.113) #14
  br label %8

8:                                                ; preds = %1, %7
  %9 = load ptr, ptr %2, align 8
  %10 = getelementptr inbounds i8, ptr %9, i64 1872
  %11 = load ptr, ptr %10, align 8
  %12 = tail call zeroext i8 %11(ptr noundef nonnull %2, ptr noundef %0) #14
  ret i8 %12
}